; Function Attrs: inlinehint mustprogress nounwind uwtable
define internal void @_ZN4absl12_GLOBAL__N_143CordzStringTest_PrependStringToInlined_TestD0Ev(ptr noundef nonnull align 8 dereferenceable(28) initializes((0, 8), (16, 24)) %0) unnamed_addr #16 align 2 personality ptr @__gxx_personality_v0 {
  store ptr getelementptr inbounds nuw inrange(-16, 48) (i8, ptr @_ZTVN4absl12_GLOBAL__N_115CordzStringTestE, i64 16), ptr %0, align 8, !tbaa !18
  %2 = getelementptr inbounds nuw i8, ptr %0, i64 16
  store ptr getelementptr inbounds nuw inrange(-16, 16) (i8, ptr @_ZTVN4absl12_GLOBAL__N_115CordzStringTestE, i64 80), ptr %2, align 8, !tbaa !18
  %3 = getelementptr inbounds nuw i8, ptr %0, i64 24
  %4 = load i32, ptr %3, align 8, !tbaa !100
  invoke void @_ZN4absl13cord_internal23set_cordz_mean_intervalEi(i32 noundef %4)
          to label %5 unwind label %8

5:                                                ; preds = %1
  %6 = load i32, ptr %3, align 8, !tbaa !100
  %7 = sext i32 %6 to i64
  invoke void @_ZN4absl13cord_internal33cordz_set_next_sample_for_testingEl(i64 noundef %7)
          to label %_ZN4absl12_GLOBAL__N_115CordzStringTestD2Ev.exit unwind label %8

8:                                                ; preds = %5, %1
  %9 = landingpad { ptr, i32 }
          catch ptr null
  %10 = extractvalue { ptr, i32 } %9, 0
  tail call void @__clang_call_terminate(ptr %10) #37
  unreachable

_ZN4absl12_GLOBAL__N_115CordzStringTestD2Ev.exit: ; preds = %5
  tail call void @_ZN7testing4TestD2Ev(ptr noundef nonnull align 8 dereferenceable(28) %0) #17
  tail call void @_ZdlPvm(ptr noundef nonnull %0, i64 noundef 32) #36
  ret void
}